target datalayout = "e-m:e-p270:32:32-p271:32:32-p272:64:64-i64:64-i128:128-f80:128-n8:16:32:64-S128"
target triple = "x86_64-unknown-linux-gnu"

%struct.Chardev = type { %struct.Object, %struct.QemuMutex, ptr, ptr, ptr, i32, i32, i8, ptr, ptr, [1 x i64] }
%struct.Object = type { ptr, ptr, ptr, i32, ptr }
%struct.QemuMutex = type { %union.pthread_mutex_t, i8 }
%union.pthread_mutex_t = type { %struct.__pthread_mutex_s }
%struct.__pthread_mutex_s = type { i32, i32, i32, i32, i32, i16, i16, %struct.__pthread_internal_list }
%struct.__pthread_internal_list = type { ptr, ptr }
%struct.ChardevClass = type { %struct.ObjectClass, i8, i8, ptr, ptr, ptr, ptr, ptr, ptr, ptr, ptr, ptr, ptr, ptr, ptr, ptr, ptr, ptr, ptr }
%struct.ObjectClass = type { ptr, ptr, [4 x ptr], [4 x ptr], ptr, ptr }

@replay_mode = external global i32, align 4
@.str.4 = private unnamed_addr constant [8 x i8] c"chardev\00", align 1
@.str.104 = private unnamed_addr constant [101 x i8] c"/home/dtcxzyw/WorkSpace/Projects/compilers/llvm-opt-benchmark/bench/qemu/qemu/include/chardev/char.h\00", align 1
@__func__.CHARDEV_GET_CLASS = private unnamed_addr constant [18 x i8] c"CHARDEV_GET_CLASS\00", align 1
@.str.115 = private unnamed_addr constant [54 x i8] c"Replay: ioctl is not supported for serial devices yet\00", align 1

; Function Attrs: nounwind sspstrong uwtable
define internal i32 @test_bit(i64 noundef %nr, ptr noundef %addr) #0 {
entry:
  %nr.addr = alloca i64, align 8
  %addr.addr = alloca ptr, align 8
  store i64 %nr, ptr %nr.addr, align 8
  store ptr %addr, ptr %addr.addr, align 8
  %0 = load ptr, ptr %addr.addr, align 8
  %1 = load i64, ptr %nr.addr, align 8
  %div = udiv i64 %1, 64
  %arrayidx = getelementptr i64, ptr %0, i64 %div
  %2 = load i64, ptr %arrayidx, align 8
  %3 = load i64, ptr %nr.addr, align 8
  %and = and i64 %3, 63
  %shr = lshr i64 %2, %and
  %and1 = and i64 1, %shr
  %conv = trunc i64 %and1 to i32
  ret i32 %conv
}

; Function Attrs: nounwind sspstrong uwtable
define internal void @set_bit(i64 noundef %nr, ptr noundef %addr) #0 {
entry:
  %nr.addr = alloca i64, align 8
  %addr.addr = alloca ptr, align 8
  %mask = alloca i64, align 8
  %p = alloca ptr, align 8
  store i64 %nr, ptr %nr.addr, align 8
  store ptr %addr, ptr %addr.addr, align 8
  %0 = load i64, ptr %nr.addr, align 8
  %rem = urem i64 %0, 64
  %shl = shl i64 1, %rem
  store i64 %shl, ptr %mask, align 8
  %1 = load ptr, ptr %addr.addr, align 8
  %2 = load i64, ptr %nr.addr, align 8
  %div = udiv i64 %2, 64
  %add.ptr = getelementptr i64, ptr %1, i64 %div
  store ptr %add.ptr, ptr %p, align 8
  %3 = load i64, ptr %mask, align 8
  %4 = load ptr, ptr %p, align 8
  %5 = load i64, ptr %4, align 8
  %or = or i64 %5, %3
  store i64 %or, ptr %4, align 8
  ret void
}

; Function Attrs: nounwind sspstrong uwtable
define internal ptr @CHARDEV_GET_CLASS(ptr noundef %obj) #0 {
entry:
  %obj.addr = alloca ptr, align 8
  store ptr %obj, ptr %obj.addr, align 8
  %0 = load ptr, ptr %obj.addr, align 8
  %call = call ptr @object_get_class(ptr noundef %0)
  %call1 = call ptr @object_class_dynamic_cast_assert(ptr noundef %call, ptr noundef @.str.4, ptr noundef @.str.104, i32 noundef 231, ptr noundef @__func__.CHARDEV_GET_CLASS)
  ret ptr %call1
}

; Function Attrs: nounwind sspstrong uwtable
define dso_local zeroext i1 @qemu_chr_has_feature(ptr noundef %chr, i32 noundef %feature) #0 {
entry:
  %chr.addr = alloca ptr, align 8
  %feature.addr = alloca i32, align 4
  store ptr %chr, ptr %chr.addr, align 8
  store i32 %feature, ptr %feature.addr, align 4
  %0 = load i32, ptr %feature.addr, align 4
  %conv = zext i32 %0 to i64
  %1 = load ptr, ptr %chr.addr, align 8
  %features = getelementptr inbounds %struct.Chardev, ptr %1, i32 0, i32 10
  %arraydecay = getelementptr inbounds [1 x i64], ptr %features, i64 0, i64 0
  %call = call i32 @test_bit(i64 noundef %conv, ptr noundef %arraydecay)
  %tobool = icmp ne i32 %call, 0
  ret i1 %tobool
}

; Function Attrs: nounwind sspstrong uwtable
define dso_local void @qemu_chr_set_feature(ptr noundef %chr, i32 noundef %feature) #0 {
entry:
  %chr.addr = alloca ptr, align 8
  %feature.addr = alloca i32, align 4
  store ptr %chr, ptr %chr.addr, align 8
  store i32 %feature, ptr %feature.addr, align 4
  %0 = load i32, ptr %feature.addr, align 4
  %conv = zext i32 %0 to i64
  %1 = load ptr, ptr %chr.addr, align 8
  %features = getelementptr inbounds %struct.Chardev, ptr %1, i32 0, i32 10
  %arraydecay = getelementptr inbounds [1 x i64], ptr %features, i64 0, i64 0
  call void @set_bit(i64 noundef %conv, ptr noundef %arraydecay)
  ret void
}

; Function Attrs: nounwind sspstrong uwtable
define internal ptr @qemu_chr_new_permit_mux_mon(ptr noundef %label, ptr noundef %filename, i1 noundef zeroext %permit_mux_mon, ptr noundef %context) #0 {
entry:
  %label.addr = alloca ptr, align 8
  %filename.addr = alloca ptr, align 8
  %permit_mux_mon.addr = alloca i8, align 1
  %context.addr = alloca ptr, align 8
  %chr = alloca ptr, align 8
  store ptr %label, ptr %label.addr, align 8
  store ptr %filename, ptr %filename.addr, align 8
  %frombool = zext i1 %permit_mux_mon to i8
  store i8 %frombool, ptr %permit_mux_mon.addr, align 1
  store ptr %context, ptr %context.addr, align 8
  %0 = load ptr, ptr %label.addr, align 8
  %1 = load ptr, ptr %filename.addr, align 8
  %2 = load i8, ptr %permit_mux_mon.addr, align 1
  %tobool = trunc i8 %2 to i1
  %3 = load ptr, ptr %context.addr, align 8
  %call = call ptr @qemu_chr_new_noreplay(ptr noundef %0, ptr noundef %1, i1 noundef zeroext %tobool, ptr noundef %3)
  store ptr %call, ptr %chr, align 8
  %4 = load ptr, ptr %chr, align 8
  %tobool1 = icmp ne ptr %4, null
  br i1 %tobool1, label %if.then, label %if.end8

if.then:                                          ; preds = %entry
  %5 = load i32, ptr @replay_mode, align 4
  %cmp = icmp ne i32 %5, 0
  br i1 %cmp, label %if.then2, label %if.end

if.then2:                                         ; preds = %if.then
  %6 = load ptr, ptr %chr, align 8
  call void @qemu_chr_set_feature(ptr noundef %6, i32 noundef 2)
  br label %if.end

if.end:                                           ; preds = %if.then2, %if.then
  %7 = load ptr, ptr %chr, align 8
  %call3 = call zeroext i1 @qemu_chr_has_feature(ptr noundef %7, i32 noundef 2)
  br i1 %call3, label %land.lhs.true, label %if.end7

land.lhs.true:                                    ; preds = %if.end
  %8 = load ptr, ptr %chr, align 8
  %call4 = call ptr @CHARDEV_GET_CLASS(ptr noundef %8)
  %chr_ioctl = getelementptr inbounds %struct.ChardevClass, ptr %call4, i32 0, i32 9
  %9 = load ptr, ptr %chr_ioctl, align 8
  %tobool5 = icmp ne ptr %9, null
  br i1 %tobool5, label %if.then6, label %if.end7

if.then6:                                         ; preds = %land.lhs.true
  call void (ptr, ...) @error_report(ptr noundef @.str.115)
  br label %if.end7

if.end7:                                          ; preds = %if.then6, %land.lhs.true, %if.end
  %10 = load ptr, ptr %chr, align 8
  call void @replay_register_char_driver(ptr noundef %10)
  br label %if.end8

if.end8:                                          ; preds = %if.end7, %entry
  %11 = load ptr, ptr %chr, align 8
  ret ptr %11
}

; Function Attrs: nounwind sspstrong uwtable
define dso_local ptr @qemu_chr_new_mux_mon(ptr noundef %label, ptr noundef %filename, ptr noundef %context) #0 {
entry:
  %label.addr = alloca ptr, align 8
  %filename.addr = alloca ptr, align 8
  %context.addr = alloca ptr, align 8
  store ptr %label, ptr %label.addr, align 8
  store ptr %filename, ptr %filename.addr, align 8
  store ptr %context, ptr %context.addr, align 8
  %0 = load ptr, ptr %label.addr, align 8
  %1 = load ptr, ptr %filename.addr, align 8
  %2 = load ptr, ptr %context.addr, align 8
  %call = call ptr @qemu_chr_new_permit_mux_mon(ptr noundef %0, ptr noundef %1, i1 noundef zeroext true, ptr noundef %2)
  ret ptr %call
}